; ModuleID = 'source-C-CXX/4/1232.c'
source_filename = "source-C-CXX/4/1232.c"
target datalayout = "e-m:e-p270:32:32-p271:32:32-p272:64:64-i64:64-f80:128-n8:16:32:64-S128"
target triple = "x86_64-pc-linux-gnu"

@.str = private unnamed_addr constant [5 x i8] c"%lf\0A\00", align 1
@.str.1 = private unnamed_addr constant [6 x i8] c"error\00", align 1
@.str.2 = private unnamed_addr constant [4 x i8] c"yes\00", align 1
@.str.3 = private unnamed_addr constant [3 x i8] c"no\00", align 1

; Function Attrs: nounwind sspstrong uwtable
define dso_local i32 @main() local_unnamed_addr #0 {
  %1 = alloca double, align 8
  %2 = alloca [501 x i8], align 16
  %3 = alloca [501 x i8], align 16
  %4 = bitcast double* %1 to i8*
  call void @llvm.lifetime.start.p0i8(i64 8, i8* nonnull %4) #5
  %5 = getelementptr inbounds [501 x i8], [501 x i8]* %2, i64 0, i64 0
  call void @llvm.lifetime.start.p0i8(i64 501, i8* nonnull %5) #5
  %6 = getelementptr inbounds [501 x i8], [501 x i8]* %3, i64 0, i64 0
  call void @llvm.lifetime.start.p0i8(i64 501, i8* nonnull %6) #5
  %7 = call i32 (i8*, ...) @__isoc99_scanf(i8* getelementptr inbounds ([5 x i8], [5 x i8]* @.str, i64 0, i64 0), double* nonnull %1)
  %8 = call i32 (i8*, ...) bitcast (i32 (...)* @gets to i32 (i8*, ...)*)(i8* nonnull %5) #5
  %9 = call i32 (i8*, ...) bitcast (i32 (...)* @gets to i32 (i8*, ...)*)(i8* nonnull %6) #5
  %10 = call i64 @strlen(i8* noundef nonnull %5) #6
  %11 = trunc i64 %10 to i32
  %12 = call i64 @strlen(i8* noundef nonnull %6) #6
  %13 = trunc i64 %12 to i32
  %14 = icmp eq i32 %11, %13
  br i1 %14, label %15, label %44

15:                                               ; preds = %0
  %16 = load i8, i8* %6, align 16, !tbaa !5
  %17 = icmp eq i8 %16, 0
  br i1 %17, label %36, label %18

18:                                               ; preds = %15
  %19 = load i8, i8* %5, align 16, !tbaa !5
  br label %20

20:                                               ; preds = %18, %26
  %21 = phi i64 [ 0, %18 ], [ %30, %26 ]
  %22 = phi i8 [ %16, %18 ], [ %34, %26 ]
  %23 = phi i8 [ %19, %18 ], [ %32, %26 ]
  %24 = phi double [ 0.000000e+00, %18 ], [ %29, %26 ]
  switch i8 %23, label %44 [
    i8 65, label %25
    i8 84, label %25
    i8 71, label %25
    i8 67, label %25
  ]

25:                                               ; preds = %20, %20, %20, %20
  switch i8 %22, label %44 [
    i8 65, label %26
    i8 84, label %26
    i8 71, label %26
    i8 67, label %26
  ]

26:                                               ; preds = %25, %25, %25, %25
  %27 = icmp eq i8 %23, %22
  %28 = fadd double %24, 1.000000e+00
  %29 = select i1 %27, double %28, double %24
  %30 = add nuw i64 %21, 1
  %31 = getelementptr inbounds [501 x i8], [501 x i8]* %2, i64 0, i64 %30
  %32 = load i8, i8* %31, align 1, !tbaa !5
  %33 = getelementptr inbounds [501 x i8], [501 x i8]* %3, i64 0, i64 %30
  %34 = load i8, i8* %33, align 1, !tbaa !5
  %35 = icmp eq i8 %34, 0
  br i1 %35, label %36, label %20, !llvm.loop !8

36:                                               ; preds = %26, %15
  %37 = phi double [ 0.000000e+00, %15 ], [ %29, %26 ]
  %38 = add nsw i32 %11, -1
  %39 = sitofp i32 %38 to double
  %40 = fdiv double %37, %39
  %41 = load double, double* %1, align 8, !tbaa !10
  %42 = fcmp ult double %40, %41
  %43 = select i1 %42, i8* getelementptr inbounds ([3 x i8], [3 x i8]* @.str.3, i64 0, i64 0), i8* getelementptr inbounds ([4 x i8], [4 x i8]* @.str.2, i64 0, i64 0)
  br label %44

44:                                               ; preds = %20, %25, %36, %0
  %45 = phi i8* [ getelementptr inbounds ([6 x i8], [6 x i8]* @.str.1, i64 0, i64 0), %0 ], [ %43, %36 ], [ getelementptr inbounds ([6 x i8], [6 x i8]* @.str.1, i64 0, i64 0), %25 ], [ getelementptr inbounds ([6 x i8], [6 x i8]* @.str.1, i64 0, i64 0), %20 ]
  %46 = call i32 (i8*, ...) @printf(i8* nonnull dereferenceable(1) %45)
  call void @llvm.lifetime.end.p0i8(i64 501, i8* nonnull %6) #5
  call void @llvm.lifetime.end.p0i8(i64 501, i8* nonnull %5) #5
  call void @llvm.lifetime.end.p0i8(i64 8, i8* nonnull %4) #5
  ret i32 0
}

; Function Attrs: argmemonly mustprogress nofree nosync nounwind willreturn
declare void @llvm.lifetime.start.p0i8(i64 immarg, i8* nocapture) #1

; Function Attrs: nofree nounwind
declare noundef i32 @__isoc99_scanf(i8* nocapture noundef readonly, ...) local_unnamed_addr #2

declare i32 @gets(...) local_unnamed_addr #3

; Function Attrs: argmemonly mustprogress nofree nounwind readonly willreturn
declare i64 @strlen(i8* nocapture) local_unnamed_addr #4

; Function Attrs: nofree nounwind
declare noundef i32 @printf(i8* nocapture noundef readonly, ...) local_unnamed_addr #2

; Function Attrs: argmemonly mustprogress nofree nosync nounwind willreturn
declare void @llvm.lifetime.end.p0i8(i64 immarg, i8* nocapture) #1


!llvm.module.flags = !{!0, !1, !2, !3}
!llvm.ident = !{!4}

!0 = !{i32 1, !"wchar_size", i32 4}
!1 = !{i32 7, !"PIC Level", i32 2}
!2 = !{i32 7, !"PIE Level", i32 2}
!3 = !{i32 7, !"uwtable", i32 1}
!4 = !{!"clang version 13.0.0"}
!5 = !{!6, !6, i64 0}
!6 = !{!"omnipotent char", !7, i64 0}
!7 = !{!"Simple C/C++ TBAA"}
!8 = distinct !{!8, !9}
!9 = !{!"llvm.loop.mustprogress"}
!10 = !{!11, !11, i64 0}
!11 = !{!"double", !6, i64 0}
